target datalayout = "e-m:e-p270:32:32-p271:32:32-p272:64:64-i64:64-i128:128-f80:128-n8:16:32:64-S128"
target triple = "x86_64-pc-linux-gnu"

%struct.AVChannelLayout = type { i32, i32, %union.anon.1, ptr }
%union.anon.1 = type { i64 }
%struct.AVRational = type { i32, i32 }
%struct.FillBordersContext = type { ptr, i32, i32, i32, i32, i32, i32, i32, [4 x %struct.Borders], [4 x i32], [4 x i32], [4 x i8], [4 x i8], [4 x i8], ptr }
%struct.Borders = type { i32, i32, i32, i32 }
%struct.AVFrame = type { [8 x ptr], [8 x i32], ptr, i32, i32, i32, i32, i32, %struct.AVRational, i64, i64, %struct.AVRational, i32, ptr, i32, i32, [8 x ptr], ptr, i32, ptr, i32, i32, i32, i32, i32, i32, i32, i64, ptr, i32, ptr, ptr, i64, i64, i64, i64, ptr, %struct.AVChannelLayout, i64 }

; Function Attrs: nounwind uwtable
define internal void @fixed_borders16(ptr noundef %0, ptr noundef %1) #0 {
  %3 = alloca ptr, align 8
  %4 = alloca ptr, align 8
  %5 = alloca i32, align 4
  %6 = alloca i32, align 4
  %7 = alloca i32, align 4
  %8 = alloca ptr, align 8
  %9 = alloca i16, align 2
  %10 = alloca i64, align 8
  store ptr %0, ptr %3, align 8, !tbaa !37
  store ptr %1, ptr %4, align 8, !tbaa !26
  call void @llvm.lifetime.start.p0(i64 4, ptr %5) #8
  call void @llvm.lifetime.start.p0(i64 4, ptr %6) #8
  call void @llvm.lifetime.start.p0(i64 4, ptr %7) #8
  store i32 0, ptr %5, align 4, !tbaa !11
  br label %11

11:                                               ; preds = %232, %2
  %12 = load i32, ptr %5, align 4, !tbaa !11
  %13 = load ptr, ptr %3, align 8, !tbaa !37
  %14 = getelementptr inbounds nuw %struct.FillBordersContext, ptr %13, i32 0, i32 6
  %15 = load i32, ptr %14, align 4, !tbaa !48
  %16 = icmp slt i32 %12, %15
  br i1 %16, label %17, label %235

17:                                               ; preds = %11
  call void @llvm.lifetime.start.p0(i64 8, ptr %8) #8
  %18 = load ptr, ptr %4, align 8, !tbaa !26
  %19 = getelementptr inbounds nuw %struct.AVFrame, ptr %18, i32 0, i32 0
  %20 = load i32, ptr %5, align 4, !tbaa !11
  %21 = sext i32 %20 to i64
  %22 = getelementptr inbounds [8 x ptr], ptr %19, i64 0, i64 %21
  %23 = load ptr, ptr %22, align 8, !tbaa !9
  store ptr %23, ptr %8, align 8, !tbaa !75
  call void @llvm.lifetime.start.p0(i64 2, ptr %9) #8
  %24 = load ptr, ptr %3, align 8, !tbaa !37
  %25 = getelementptr inbounds nuw %struct.FillBordersContext, ptr %24, i32 0, i32 11
  %26 = load i32, ptr %5, align 4, !tbaa !11
  %27 = sext i32 %26 to i64
  %28 = getelementptr inbounds [4 x i8], ptr %25, i64 0, i64 %27
  %29 = load i8, ptr %28, align 1, !tbaa !66
  %30 = zext i8 %29 to i32
  %31 = load ptr, ptr %3, align 8, !tbaa !37
  %32 = getelementptr inbounds nuw %struct.FillBordersContext, ptr %31, i32 0, i32 7
  %33 = load i32, ptr %32, align 8, !tbaa !51
  %34 = sub nsw i32 %33, 8
  %35 = shl i32 %30, %34
  %36 = trunc i32 %35 to i16
  store i16 %36, ptr %9, align 2, !tbaa !77
  call void @llvm.lifetime.start.p0(i64 8, ptr %10) #8
  %37 = load ptr, ptr %4, align 8, !tbaa !26
  %38 = getelementptr inbounds nuw %struct.AVFrame, ptr %37, i32 0, i32 1
  %39 = load i32, ptr %5, align 4, !tbaa !11
  %40 = sext i32 %39 to i64
  %41 = getelementptr inbounds [8 x i32], ptr %38, i64 0, i64 %40
  %42 = load i32, ptr %41, align 4, !tbaa !11
  %43 = sdiv i32 %42, 2
  %44 = sext i32 %43 to i64
  store i64 %44, ptr %10, align 8, !tbaa !70
  %45 = load ptr, ptr %3, align 8, !tbaa !37
  %46 = getelementptr inbounds nuw %struct.FillBordersContext, ptr %45, i32 0, i32 8
  %47 = load i32, ptr %5, align 4, !tbaa !11
  %48 = sext i32 %47 to i64
  %49 = getelementptr inbounds [4 x %struct.Borders], ptr %46, i64 0, i64 %48
  %50 = getelementptr inbounds nuw %struct.Borders, ptr %49, i32 0, i32 2
  %51 = load i32, ptr %50, align 4, !tbaa !63
  store i32 %51, ptr %6, align 4, !tbaa !11
  br label %52

52:                                               ; preds = %137, %17
  %53 = load i32, ptr %6, align 4, !tbaa !11
  %54 = load ptr, ptr %3, align 8, !tbaa !37
  %55 = getelementptr inbounds nuw %struct.FillBordersContext, ptr %54, i32 0, i32 10
  %56 = load i32, ptr %5, align 4, !tbaa !11
  %57 = sext i32 %56 to i64
  %58 = getelementptr inbounds [4 x i32], ptr %55, i64 0, i64 %57
  %59 = load i32, ptr %58, align 4, !tbaa !11
  %60 = load ptr, ptr %3, align 8, !tbaa !37
  %61 = getelementptr inbounds nuw %struct.FillBordersContext, ptr %60, i32 0, i32 8
  %62 = load i32, ptr %5, align 4, !tbaa !11
  %63 = sext i32 %62 to i64
  %64 = getelementptr inbounds [4 x %struct.Borders], ptr %61, i64 0, i64 %63
  %65 = getelementptr inbounds nuw %struct.Borders, ptr %64, i32 0, i32 3
  %66 = load i32, ptr %65, align 4, !tbaa !64
  %67 = sub nsw i32 %59, %66
  %68 = icmp slt i32 %53, %67
  br i1 %68, label %69, label %140

69:                                               ; preds = %52
  store i32 0, ptr %7, align 4, !tbaa !11
  br label %70

70:                                               ; preds = %91, %69
  %71 = load i32, ptr %7, align 4, !tbaa !11
  %72 = load ptr, ptr %3, align 8, !tbaa !37
  %73 = getelementptr inbounds nuw %struct.FillBordersContext, ptr %72, i32 0, i32 8
  %74 = load i32, ptr %5, align 4, !tbaa !11
  %75 = sext i32 %74 to i64
  %76 = getelementptr inbounds [4 x %struct.Borders], ptr %73, i64 0, i64 %75
  %77 = getelementptr inbounds nuw %struct.Borders, ptr %76, i32 0, i32 0
  %78 = load i32, ptr %77, align 4, !tbaa !60
  %79 = icmp slt i32 %71, %78
  br i1 %79, label %80, label %94

80:                                               ; preds = %70
  %81 = load i16, ptr %9, align 2, !tbaa !77
  %82 = load ptr, ptr %8, align 8, !tbaa !75
  %83 = load i32, ptr %6, align 4, !tbaa !11
  %84 = sext i32 %83 to i64
  %85 = load i64, ptr %10, align 8, !tbaa !70
  %86 = mul nsw i64 %84, %85
  %87 = load i32, ptr %7, align 4, !tbaa !11
  %88 = sext i32 %87 to i64
  %89 = add nsw i64 %86, %88
  %90 = getelementptr inbounds i16, ptr %82, i64 %89
  store i16 %81, ptr %90, align 2, !tbaa !77
  br label %91

91:                                               ; preds = %80
  %92 = load i32, ptr %7, align 4, !tbaa !11
  %93 = add nsw i32 %92, 1
  store i32 %93, ptr %7, align 4, !tbaa !11
  br label %70, !llvm.loop !101

94:                                               ; preds = %70
  store i32 0, ptr %7, align 4, !tbaa !11
  br label %95

95:                                               ; preds = %133, %94
  %96 = load i32, ptr %7, align 4, !tbaa !11
  %97 = load ptr, ptr %3, align 8, !tbaa !37
  %98 = getelementptr inbounds nuw %struct.FillBordersContext, ptr %97, i32 0, i32 8
  %99 = load i32, ptr %5, align 4, !tbaa !11
  %100 = sext i32 %99 to i64
  %101 = getelementptr inbounds [4 x %struct.Borders], ptr %98, i64 0, i64 %100
  %102 = getelementptr inbounds nuw %struct.Borders, ptr %101, i32 0, i32 1
  %103 = load i32, ptr %102, align 4, !tbaa !62
  %104 = icmp slt i32 %96, %103
  br i1 %104, label %105, label %136

105:                                              ; preds = %95
  %106 = load i16, ptr %9, align 2, !tbaa !77
  %107 = load ptr, ptr %8, align 8, !tbaa !75
  %108 = load i32, ptr %6, align 4, !tbaa !11
  %109 = sext i32 %108 to i64
  %110 = load i64, ptr %10, align 8, !tbaa !70
  %111 = mul nsw i64 %109, %110
  %112 = load ptr, ptr %3, align 8, !tbaa !37
  %113 = getelementptr inbounds nuw %struct.FillBordersContext, ptr %112, i32 0, i32 9
  %114 = load i32, ptr %5, align 4, !tbaa !11
  %115 = sext i32 %114 to i64
  %116 = getelementptr inbounds [4 x i32], ptr %113, i64 0, i64 %115
  %117 = load i32, ptr %116, align 4, !tbaa !11
  %118 = sext i32 %117 to i64
  %119 = add nsw i64 %111, %118
  %120 = load ptr, ptr %3, align 8, !tbaa !37
  %121 = getelementptr inbounds nuw %struct.FillBordersContext, ptr %120, i32 0, i32 8
  %122 = load i32, ptr %5, align 4, !tbaa !11
  %123 = sext i32 %122 to i64
  %124 = getelementptr inbounds [4 x %struct.Borders], ptr %121, i64 0, i64 %123
  %125 = getelementptr inbounds nuw %struct.Borders, ptr %124, i32 0, i32 1
  %126 = load i32, ptr %125, align 4, !tbaa !62
  %127 = sext i32 %126 to i64
  %128 = sub nsw i64 %119, %127
  %129 = load i32, ptr %7, align 4, !tbaa !11
  %130 = sext i32 %129 to i64
  %131 = add nsw i64 %128, %130
  %132 = getelementptr inbounds i16, ptr %107, i64 %131
  store i16 %106, ptr %132, align 2, !tbaa !77
  br label %133

133:                                              ; preds = %105
  %134 = load i32, ptr %7, align 4, !tbaa !11
  %135 = add nsw i32 %134, 1
  store i32 %135, ptr %7, align 4, !tbaa !11
  br label %95, !llvm.loop !102

136:                                              ; preds = %95
  br label %137

137:                                              ; preds = %136
  %138 = load i32, ptr %6, align 4, !tbaa !11
  %139 = add nsw i32 %138, 1
  store i32 %139, ptr %6, align 4, !tbaa !11
  br label %52, !llvm.loop !103

140:                                              ; preds = %52
  store i32 0, ptr %6, align 4, !tbaa !11
  br label %141

141:                                              ; preds = %176, %140
  %142 = load i32, ptr %6, align 4, !tbaa !11
  %143 = load ptr, ptr %3, align 8, !tbaa !37
  %144 = getelementptr inbounds nuw %struct.FillBordersContext, ptr %143, i32 0, i32 8
  %145 = load i32, ptr %5, align 4, !tbaa !11
  %146 = sext i32 %145 to i64
  %147 = getelementptr inbounds [4 x %struct.Borders], ptr %144, i64 0, i64 %146
  %148 = getelementptr inbounds nuw %struct.Borders, ptr %147, i32 0, i32 2
  %149 = load i32, ptr %148, align 4, !tbaa !63
  %150 = icmp slt i32 %142, %149
  br i1 %150, label %151, label %179

151:                                              ; preds = %141
  store i32 0, ptr %7, align 4, !tbaa !11
  br label %152

152:                                              ; preds = %172, %151
  %153 = load i32, ptr %7, align 4, !tbaa !11
  %154 = load ptr, ptr %3, align 8, !tbaa !37
  %155 = getelementptr inbounds nuw %struct.FillBordersContext, ptr %154, i32 0, i32 9
  %156 = load i32, ptr %5, align 4, !tbaa !11
  %157 = sext i32 %156 to i64
  %158 = getelementptr inbounds [4 x i32], ptr %155, i64 0, i64 %157
  %159 = load i32, ptr %158, align 4, !tbaa !11
  %160 = icmp slt i32 %153, %159
  br i1 %160, label %161, label %175

161:                                              ; preds = %152
  %162 = load i16, ptr %9, align 2, !tbaa !77
  %163 = load ptr, ptr %8, align 8, !tbaa !75
  %164 = load i32, ptr %6, align 4, !tbaa !11
  %165 = sext i32 %164 to i64
  %166 = load i64, ptr %10, align 8, !tbaa !70
  %167 = mul nsw i64 %165, %166
  %168 = load i32, ptr %7, align 4, !tbaa !11
  %169 = sext i32 %168 to i64
  %170 = add nsw i64 %167, %169
  %171 = getelementptr inbounds i16, ptr %163, i64 %170
  store i16 %162, ptr %171, align 2, !tbaa !77
  br label %172

172:                                              ; preds = %161
  %173 = load i32, ptr %7, align 4, !tbaa !11
  %174 = add nsw i32 %173, 1
  store i32 %174, ptr %7, align 4, !tbaa !11
  br label %152, !llvm.loop !104

175:                                              ; preds = %152
  br label %176

176:                                              ; preds = %175
  %177 = load i32, ptr %6, align 4, !tbaa !11
  %178 = add nsw i32 %177, 1
  store i32 %178, ptr %6, align 4, !tbaa !11
  br label %141, !llvm.loop !105

179:                                              ; preds = %141
  %180 = load ptr, ptr %3, align 8, !tbaa !37
  %181 = getelementptr inbounds nuw %struct.FillBordersContext, ptr %180, i32 0, i32 10
  %182 = load i32, ptr %5, align 4, !tbaa !11
  %183 = sext i32 %182 to i64
  %184 = getelementptr inbounds [4 x i32], ptr %181, i64 0, i64 %183
  %185 = load i32, ptr %184, align 4, !tbaa !11
  %186 = load ptr, ptr %3, align 8, !tbaa !37
  %187 = getelementptr inbounds nuw %struct.FillBordersContext, ptr %186, i32 0, i32 8
  %188 = load i32, ptr %5, align 4, !tbaa !11
  %189 = sext i32 %188 to i64
  %190 = getelementptr inbounds [4 x %struct.Borders], ptr %187, i64 0, i64 %189
  %191 = getelementptr inbounds nuw %struct.Borders, ptr %190, i32 0, i32 3
  %192 = load i32, ptr %191, align 4, !tbaa !64
  %193 = sub nsw i32 %185, %192
  store i32 %193, ptr %6, align 4, !tbaa !11
  br label %194

194:                                              ; preds = %228, %179
  %195 = load i32, ptr %6, align 4, !tbaa !11
  %196 = load ptr, ptr %3, align 8, !tbaa !37
  %197 = getelementptr inbounds nuw %struct.FillBordersContext, ptr %196, i32 0, i32 10
  %198 = load i32, ptr %5, align 4, !tbaa !11
  %199 = sext i32 %198 to i64
  %200 = getelementptr inbounds [4 x i32], ptr %197, i64 0, i64 %199
  %201 = load i32, ptr %200, align 4, !tbaa !11
  %202 = icmp slt i32 %195, %201
  br i1 %202, label %203, label %231

203:                                              ; preds = %194
  store i32 0, ptr %7, align 4, !tbaa !11
  br label %204

204:                                              ; preds = %224, %203
  %205 = load i32, ptr %7, align 4, !tbaa !11
  %206 = load ptr, ptr %3, align 8, !tbaa !37
  %207 = getelementptr inbounds nuw %struct.FillBordersContext, ptr %206, i32 0, i32 9
  %208 = load i32, ptr %5, align 4, !tbaa !11
  %209 = sext i32 %208 to i64
  %210 = getelementptr inbounds [4 x i32], ptr %207, i64 0, i64 %209
  %211 = load i32, ptr %210, align 4, !tbaa !11
  %212 = icmp slt i32 %205, %211
  br i1 %212, label %213, label %227

213:                                              ; preds = %204
  %214 = load i16, ptr %9, align 2, !tbaa !77
  %215 = load ptr, ptr %8, align 8, !tbaa !75
  %216 = load i32, ptr %6, align 4, !tbaa !11
  %217 = sext i32 %216 to i64
  %218 = load i64, ptr %10, align 8, !tbaa !70
  %219 = mul nsw i64 %217, %218
  %220 = load i32, ptr %7, align 4, !tbaa !11
  %221 = sext i32 %220 to i64
  %222 = add nsw i64 %219, %221
  %223 = getelementptr inbounds i16, ptr %215, i64 %222
  store i16 %214, ptr %223, align 2, !tbaa !77
  br label %224

224:                                              ; preds = %213
  %225 = load i32, ptr %7, align 4, !tbaa !11
  %226 = add nsw i32 %225, 1
  store i32 %226, ptr %7, align 4, !tbaa !11
  br label %204, !llvm.loop !106

227:                                              ; preds = %204
  br label %228

228:                                              ; preds = %227
  %229 = load i32, ptr %6, align 4, !tbaa !11
  %230 = add nsw i32 %229, 1
  store i32 %230, ptr %6, align 4, !tbaa !11
  br label %194, !llvm.loop !107

231:                                              ; preds = %194
  call void @llvm.lifetime.end.p0(i64 8, ptr %10) #8
  call void @llvm.lifetime.end.p0(i64 2, ptr %9) #8
  call void @llvm.lifetime.end.p0(i64 8, ptr %8) #8
  br label %232

232:                                              ; preds = %231
  %233 = load i32, ptr %5, align 4, !tbaa !11
  %234 = add nsw i32 %233, 1
  store i32 %234, ptr %5, align 4, !tbaa !11
  br label %11, !llvm.loop !108

235:                                              ; preds = %11
  call void @llvm.lifetime.end.p0(i64 4, ptr %7) #8
  call void @llvm.lifetime.end.p0(i64 4, ptr %6) #8
  call void @llvm.lifetime.end.p0(i64 4, ptr %5) #8
  ret void
}