; Function Attrs: nofree norecurse nosync nounwind memory(write, argmem: readwrite, inaccessiblemem: none) uwtable
define internal void @fixed_borders16(ptr noundef readonly captures(none) %0, ptr noundef readonly captures(none) %1) #4 {
  %3 = getelementptr inbounds nuw i8, ptr %0, i64 28
  %4 = load i32, ptr %3, align 4, !tbaa !39
  %5 = icmp sgt i32 %4, 0
  br i1 %5, label %.lr.ph, label %._crit_edge

.lr.ph:                                           ; preds = %2
  %6 = getelementptr inbounds nuw i8, ptr %0, i64 132
  %7 = getelementptr inbounds nuw i8, ptr %0, i64 32
  %8 = load i32, ptr %7, align 8, !tbaa !42
  %9 = add nsw i32 %8, -8
  %10 = getelementptr inbounds nuw i8, ptr %1, i64 64
  %11 = getelementptr inbounds nuw i8, ptr %0, i64 36
  %12 = getelementptr inbounds nuw i8, ptr %0, i64 116
  %13 = getelementptr inbounds nuw i8, ptr %0, i64 100
  %wide.trip.count148 = zext nneg i32 %4 to i64
  br label %14

14:                                               ; preds = %.lr.ph, %._crit_edge102
  %indvars.iv145 = phi i64 [ 0, %.lr.ph ], [ %indvars.iv.next146, %._crit_edge102 ]
  %15 = getelementptr inbounds nuw [8 x ptr], ptr %1, i64 0, i64 %indvars.iv145
  %16 = load ptr, ptr %15, align 8, !tbaa !62
  %17 = getelementptr inbounds nuw [4 x i8], ptr %6, i64 0, i64 %indvars.iv145
  %18 = load i8, ptr %17, align 1, !tbaa !58
  %19 = zext i8 %18 to i32
  %20 = shl i32 %19, %9
  %21 = trunc i32 %20 to i16
  %22 = getelementptr inbounds nuw [8 x i32], ptr %10, i64 0, i64 %indvars.iv145
  %23 = load i32, ptr %22, align 4, !tbaa !45
  %24 = sdiv i32 %23, 2
  %25 = sext i32 %24 to i64
  %26 = getelementptr inbounds nuw [4 x %struct.Borders], ptr %11, i64 0, i64 %indvars.iv145
  %27 = getelementptr inbounds nuw i8, ptr %26, i64 8
  %28 = load i32, ptr %27, align 4, !tbaa !55
  %29 = getelementptr inbounds nuw [4 x i32], ptr %12, i64 0, i64 %indvars.iv145
  %30 = load i32, ptr %29, align 4, !tbaa !45
  %31 = getelementptr inbounds nuw i8, ptr %26, i64 12
  %32 = load i32, ptr %31, align 4, !tbaa !56
  %33 = sub nsw i32 %30, %32
  %34 = icmp slt i32 %28, %33
  br i1 %34, label %.preheader76.lr.ph, label %.preheader78

.preheader76.lr.ph:                               ; preds = %14
  %35 = load i32, ptr %26, align 4, !tbaa !52
  %36 = icmp sgt i32 %35, 0
  %37 = getelementptr inbounds nuw i8, ptr %26, i64 4
  %38 = load i32, ptr %37, align 4, !tbaa !54
  %39 = icmp sgt i32 %38, 0
  br i1 %39, label %.preheader76.lr.ph.split.us, label %.preheader76.lr.ph.split

.preheader76.lr.ph.split.us:                      ; preds = %.preheader76.lr.ph
  %40 = zext nneg i32 %38 to i64
  %41 = getelementptr inbounds nuw [4 x i32], ptr %13, i64 0, i64 %indvars.iv145
  %42 = load i32, ptr %41, align 4, !tbaa !45
  %43 = sext i32 %42 to i64
  %invariant.op = sub nsw i64 %43, %40
  %44 = sext i32 %28 to i64
  %45 = sext i32 %33 to i64
  %wide.trip.count117 = zext nneg i32 %35 to i64
  %invariant.gep = getelementptr i16, ptr %16, i64 %invariant.op
  br label %.preheader76.us

.preheader76.us:                                  ; preds = %._crit_edge.us, %.preheader76.lr.ph.split.us
  %indvars.iv124 = phi i64 [ %indvars.iv.next125, %._crit_edge.us ], [ %44, %.preheader76.lr.ph.split.us ]
  %46 = mul nsw i64 %indvars.iv124, %25
  br i1 %36, label %.lr.ph.us, label %.preheader75.us

47:                                               ; preds = %.preheader75.us, %47
  %indvars.iv119 = phi i64 [ 0, %.preheader75.us ], [ %indvars.iv.next120, %47 ]
  %48 = getelementptr i16, ptr %gep, i64 %indvars.iv119
  store i16 %21, ptr %48, align 2, !tbaa !67
  %indvars.iv.next120 = add nuw nsw i64 %indvars.iv119, 1
  %exitcond123.not = icmp eq i64 %indvars.iv.next120, %40
  br i1 %exitcond123.not, label %._crit_edge.us, label %47, !llvm.loop !91

49:                                               ; preds = %.lr.ph.us, %49
  %indvars.iv114 = phi i64 [ 0, %.lr.ph.us ], [ %indvars.iv.next115, %49 ]
  %50 = getelementptr i16, ptr %51, i64 %indvars.iv114
  store i16 %21, ptr %50, align 2, !tbaa !67
  %indvars.iv.next115 = add nuw nsw i64 %indvars.iv114, 1
  %exitcond118.not = icmp eq i64 %indvars.iv.next115, %wide.trip.count117
  br i1 %exitcond118.not, label %.preheader75.us, label %49, !llvm.loop !92

.preheader75.us:                                  ; preds = %49, %.preheader76.us
  %gep = getelementptr i16, ptr %invariant.gep, i64 %46
  br label %47

.lr.ph.us:                                        ; preds = %.preheader76.us
  %51 = getelementptr i16, ptr %16, i64 %46
  br label %49

._crit_edge.us:                                   ; preds = %47
  %indvars.iv.next125 = add nsw i64 %indvars.iv124, 1
  %52 = icmp slt i64 %indvars.iv.next125, %45
  br i1 %52, label %.preheader76.us, label %.preheader78, !llvm.loop !93

.preheader76.lr.ph.split:                         ; preds = %.preheader76.lr.ph
  br i1 %36, label %.preheader76.us86.preheader, label %.preheader78

.preheader76.us86.preheader:                      ; preds = %.preheader76.lr.ph.split
  %53 = sext i32 %28 to i64
  %54 = sext i32 %33 to i64
  %wide.trip.count = zext nneg i32 %35 to i64
  br label %.preheader76.us86

.preheader76.us86:                                ; preds = %.preheader76.us86.preheader, %..preheader75_crit_edge.us91
  %indvars.iv111 = phi i64 [ %53, %.preheader76.us86.preheader ], [ %indvars.iv.next112, %..preheader75_crit_edge.us91 ]
  %55 = mul nsw i64 %indvars.iv111, %25
  %56 = getelementptr i16, ptr %16, i64 %55
  br label %57

57:                                               ; preds = %.preheader76.us86, %57
  %indvars.iv = phi i64 [ 0, %.preheader76.us86 ], [ %indvars.iv.next, %57 ]
  %58 = getelementptr i16, ptr %56, i64 %indvars.iv
  store i16 %21, ptr %58, align 2, !tbaa !67
  %indvars.iv.next = add nuw nsw i64 %indvars.iv, 1
  %exitcond.not = icmp eq i64 %indvars.iv.next, %wide.trip.count
  br i1 %exitcond.not, label %..preheader75_crit_edge.us91, label %57, !llvm.loop !92

..preheader75_crit_edge.us91:                     ; preds = %57
  %indvars.iv.next112 = add nsw i64 %indvars.iv111, 1
  %59 = icmp slt i64 %indvars.iv.next112, %54
  br i1 %59, label %.preheader76.us86, label %.preheader78, !llvm.loop !93

.preheader78:                                     ; preds = %..preheader75_crit_edge.us91, %._crit_edge.us, %.preheader76.lr.ph.split, %14
  %60 = icmp sgt i32 %28, 0
  br i1 %60, label %.preheader74.lr.ph, label %.preheader77

.preheader74.lr.ph:                               ; preds = %.preheader78
  %61 = getelementptr inbounds nuw [4 x i32], ptr %13, i64 0, i64 %indvars.iv145
  %62 = load i32, ptr %61, align 4, !tbaa !45
  %63 = icmp sgt i32 %62, 0
  br i1 %63, label %.preheader74.us.preheader, label %.preheader77

.preheader74.us.preheader:                        ; preds = %.preheader74.lr.ph
  %wide.trip.count135 = zext nneg i32 %28 to i64
  %wide.trip.count130 = zext nneg i32 %62 to i64
  br label %.preheader74.us

.preheader74.us:                                  ; preds = %.preheader74.us.preheader, %._crit_edge.us99
  %indvars.iv132 = phi i64 [ 0, %.preheader74.us.preheader ], [ %indvars.iv.next133, %._crit_edge.us99 ]
  %64 = mul nsw i64 %indvars.iv132, %25
  %65 = getelementptr i16, ptr %16, i64 %64
  br label %66

66:                                               ; preds = %.preheader74.us, %66
  %indvars.iv127 = phi i64 [ 0, %.preheader74.us ], [ %indvars.iv.next128, %66 ]
  %67 = getelementptr i16, ptr %65, i64 %indvars.iv127
  store i16 %21, ptr %67, align 2, !tbaa !67
  %indvars.iv.next128 = add nuw nsw i64 %indvars.iv127, 1
  %exitcond131.not = icmp eq i64 %indvars.iv.next128, %wide.trip.count130
  br i1 %exitcond131.not, label %._crit_edge.us99, label %66, !llvm.loop !94

._crit_edge.us99:                                 ; preds = %66
  %indvars.iv.next133 = add nuw nsw i64 %indvars.iv132, 1
  %exitcond136.not = icmp eq i64 %indvars.iv.next133, %wide.trip.count135
  br i1 %exitcond136.not, label %.preheader77, label %.preheader74.us, !llvm.loop !95

.preheader77:                                     ; preds = %._crit_edge.us99, %.preheader74.lr.ph, %.preheader78
  %68 = icmp sgt i32 %32, 0
  br i1 %68, label %.preheader.lr.ph, label %._crit_edge102

.preheader.lr.ph:                                 ; preds = %.preheader77
  %69 = getelementptr inbounds nuw [4 x i32], ptr %13, i64 0, i64 %indvars.iv145
  %70 = load i32, ptr %69, align 4, !tbaa !45
  %71 = icmp sgt i32 %70, 0
  br i1 %71, label %.preheader.us.preheader, label %._crit_edge102

.preheader.us.preheader:                          ; preds = %.preheader.lr.ph
  %72 = sext i32 %33 to i64
  %73 = sext i32 %30 to i64
  %wide.trip.count140 = zext nneg i32 %70 to i64
  br label %.preheader.us

.preheader.us:                                    ; preds = %.preheader.us.preheader, %._crit_edge.us104
  %indvars.iv142 = phi i64 [ %72, %.preheader.us.preheader ], [ %indvars.iv.next143, %._crit_edge.us104 ]
  %74 = mul nsw i64 %indvars.iv142, %25
  %75 = getelementptr i16, ptr %16, i64 %74
  br label %76

76:                                               ; preds = %.preheader.us, %76
  %indvars.iv137 = phi i64 [ 0, %.preheader.us ], [ %indvars.iv.next138, %76 ]
  %77 = getelementptr i16, ptr %75, i64 %indvars.iv137
  store i16 %21, ptr %77, align 2, !tbaa !67
  %indvars.iv.next138 = add nuw nsw i64 %indvars.iv137, 1
  %exitcond141.not = icmp eq i64 %indvars.iv.next138, %wide.trip.count140
  br i1 %exitcond141.not, label %._crit_edge.us104, label %76, !llvm.loop !96

._crit_edge.us104:                                ; preds = %76
  %indvars.iv.next143 = add nsw i64 %indvars.iv142, 1
  %78 = icmp slt i64 %indvars.iv.next143, %73
  br i1 %78, label %.preheader.us, label %._crit_edge102, !llvm.loop !97

._crit_edge102:                                   ; preds = %._crit_edge.us104, %.preheader.lr.ph, %.preheader77
  %indvars.iv.next146 = add nuw nsw i64 %indvars.iv145, 1
  %exitcond149.not = icmp eq i64 %indvars.iv.next146, %wide.trip.count148
  br i1 %exitcond149.not, label %._crit_edge, label %14, !llvm.loop !98

._crit_edge:                                      ; preds = %._crit_edge102, %2
  ret void
}